; Function Attrs: nounwind uwtable
define noalias nonnull ptr @l___private_Lean_Server_FileWorker_SemanticHighlighting_0__Lean_Server_FileWorker_hashAbsoluteLspSemanticToken____x40_Lean_Server_FileWorker_SemanticHighlighting___hyg_186____boxed(ptr noundef %0) #0 {
  %2 = getelementptr inbounds nuw i8, ptr %0, i64 8
  %3 = load ptr, ptr %2, align 8, !tbaa !11
  %4 = getelementptr inbounds nuw i8, ptr %0, i64 16
  %5 = load ptr, ptr %4, align 8, !tbaa !11
  %6 = getelementptr inbounds nuw i8, ptr %0, i64 24
  %7 = load i8, ptr %6, align 1, !tbaa !13
  %8 = tail call i64 @l___private_Lean_Data_Lsp_Basic_0__Lean_Lsp_hashPosition____x40_Lean_Data_Lsp_Basic___hyg_180_(ptr noundef %3) #7
  %9 = tail call i64 @lean_uint64_mix_hash(i64 noundef 0, i64 noundef %8) #7
  %10 = tail call i64 @l___private_Lean_Data_Lsp_Basic_0__Lean_Lsp_hashPosition____x40_Lean_Data_Lsp_Basic___hyg_180_(ptr noundef %5) #7
  %11 = tail call i64 @lean_uint64_mix_hash(i64 noundef %9, i64 noundef %10) #7
  %12 = tail call i64 @l___private_Lean_Data_Lsp_LanguageFeatures_0__Lean_Lsp_hashSemanticTokenType____x40_Lean_Data_Lsp_LanguageFeatures___hyg_8939_(i8 noundef zeroext %7) #7
  %13 = tail call i64 @lean_uint64_mix_hash(i64 noundef %11, i64 noundef %12) #7
  %14 = ptrtoint ptr %0 to i64
  %15 = and i64 %14, 1
  %.not = icmp eq i64 %15, 0
  br i1 %.not, label %16, label %lean_dec.exit

16:                                               ; preds = %1
  %17 = load i32, ptr %0, align 4, !tbaa !8
  %18 = icmp sgt i32 %17, 1
  br i1 %18, label %19, label %21, !prof !14

19:                                               ; preds = %16
  %20 = add nsw i32 %17, -1
  store i32 %20, ptr %0, align 4, !tbaa !8
  br label %lean_dec.exit

21:                                               ; preds = %16
  %.not.i = icmp eq i32 %17, 0
  br i1 %.not.i, label %lean_dec.exit, label %22

22:                                               ; preds = %21
  tail call void @lean_dec_ref_cold(ptr noundef nonnull %0) #7
  br label %lean_dec.exit

lean_dec.exit:                                    ; preds = %22, %21, %19, %1
  tail call void @lean_inc_heartbeat() #7
  %23 = tail call noalias ptr @mi_malloc_small(i64 noundef 16) #7
  %24 = icmp eq ptr %23, null
  br i1 %24, label %25, label %lean_box_uint64.exit

25:                                               ; preds = %lean_dec.exit
  tail call void @lean_internal_panic_out_of_memory() #8
  unreachable

lean_box_uint64.exit:                             ; preds = %lean_dec.exit
  %26 = getelementptr inbounds nuw i8, ptr %23, i64 4
  store i32 1, ptr %23, align 4, !tbaa !8
  store i32 16, ptr %26, align 4
  %27 = getelementptr inbounds nuw i8, ptr %23, i64 8
  store i64 %13, ptr %27, align 8, !tbaa !4
  ret ptr %23
}